; Function Attrs: mustprogress nofree norecurse nosync nounwind willreturn memory(argmem: write) uwtable
define void @_ZN5faiss9OPQMatrixC2Eiii(ptr noundef nonnull writeonly align 8 captures(none) dereferenceable(120) initializes((0, 19), (24, 73), (76, 92), (96, 105), (112, 120)) %0, i32 noundef %1, i32 noundef %2, i32 noundef %3) unnamed_addr #17 align 2 {
  %5 = icmp eq i32 %3, -1
  %6 = select i1 %5, i32 %1, i32 %3
  %7 = getelementptr inbounds nuw i8, ptr %0, i64 8
  store i32 %1, ptr %7, align 8, !tbaa !37
  %8 = getelementptr inbounds nuw i8, ptr %0, i64 12
  store i32 %6, ptr %8, align 4, !tbaa !29
  %9 = getelementptr inbounds nuw i8, ptr %0, i64 16
  %10 = getelementptr inbounds nuw i8, ptr %0, i64 17
  store i8 0, ptr %10, align 1, !tbaa !22
  %11 = getelementptr inbounds nuw i8, ptr %0, i64 18
  store i8 0, ptr %11, align 2, !tbaa !39
  %12 = getelementptr inbounds nuw i8, ptr %0, i64 24
  tail call void @llvm.memset.p0.i64(ptr noundef nonnull align 8 dereferenceable(49) %12, i8 0, i64 49, i1 false)
  store ptr getelementptr inbounds nuw inrange(-16, 48) (i8, ptr @_ZTVN5faiss9OPQMatrixE, i64 16), ptr %0, align 8, !tbaa !41
  %13 = getelementptr inbounds nuw i8, ptr %0, i64 76
  store i32 %2, ptr %13, align 4, !tbaa !109
  %14 = getelementptr inbounds nuw i8, ptr %0, i64 80
  store i32 50, ptr %14, align 8, !tbaa !118
  %15 = getelementptr inbounds nuw i8, ptr %0, i64 84
  store i32 4, ptr %15, align 4, !tbaa !169
  %16 = getelementptr inbounds nuw i8, ptr %0, i64 88
  store i32 40, ptr %16, align 8, !tbaa !170
  %17 = getelementptr inbounds nuw i8, ptr %0, i64 96
  %18 = getelementptr inbounds nuw i8, ptr %0, i64 104
  store i8 0, ptr %18, align 8, !tbaa !108
  %19 = getelementptr inbounds nuw i8, ptr %0, i64 112
  store ptr null, ptr %19, align 8, !tbaa !115
  store i8 0, ptr %9, align 8, !tbaa !16
  store i64 65536, ptr %17, align 8, !tbaa !105
  ret void
}